ccopy_reg
_reconstructor
p0
(cgoogle.oauth2.credentials
Credentials
p1
c__builtin__
object
p2
Ntp3
Rp4
(dp5
S'_token_uri'
p6
Vhttps://oauth2.googleapis.com/token
p7
sS'_scopes'
p8
(lp9
S'https://www.googleapis.com/auth/calendar.readonly'
p10
asS'_id_token'
p11
NsS'token'
p12
Vya29.Glz1BvztaaXmkB4bAE_Fjso3nmybWJpaZsS4aVKBX4A-K5LqhsgU7eGMknEmPcRJFtqXDs8YwaXDQfh6DjF8yy6BH9P3L2DtwF6FvozeSIIo1dwEAWA2MP4K1QatCw
p13
sS'_refresh_token'
p14
V1/8u3fVGlCyVGfvSR5SBhHK48Ot4yZbmC_UE3ow1_ADl-Cdk_Ybl3HP-KLtTqXBYoF
p15
sS'_client_secret'
p16
VG6fyygdsSo1GMuGq4fDozxkU
p17
sS'_client_id'
p18
V753169760476-1efor2ktfeudnd24qgjdaje3f0l0lkvb.apps.googleusercontent.com
p19
sS'expiry'
p20
cdatetime
datetime
p21
(S'\x07\xe3\x04\x18\x10\x12.\x0e\xbb\x99'
p22
tp23
Rp24
sb.